; Function Attrs: mustprogress nofree norecurse nosync nounwind memory(readwrite, inaccessiblemem: none) uwtable
define hidden void @_ZN3ade15ExecutionEngine10LazyPasses5resetEv(ptr noundef nonnull readonly align 8 captures(none) dereferenceable(64) %0) local_unnamed_addr #5 align 2 {
  %2 = load ptr, ptr %0, align 8, !tbaa !83
  %.not = icmp eq ptr %2, null
  br i1 %.not, label %_ZN3ade15ExecutionEngine15LazyPassWrapper5resetEv.exit, label %tailrecurse.i

tailrecurse.i:                                    ; preds = %1, %tailrecurse.i
  %.tr.i = phi ptr [ %5, %tailrecurse.i ], [ %2, %1 ]
  %3 = getelementptr inbounds nuw i8, ptr %.tr.i, i64 16
  store i8 0, ptr %3, align 8, !tbaa !86
  %4 = getelementptr inbounds nuw i8, ptr %.tr.i, i64 8
  %5 = load ptr, ptr %4, align 8, !tbaa !90
  %6 = icmp eq ptr %5, null
  br i1 %6, label %_ZN3ade15ExecutionEngine15LazyPassWrapper5resetEv.exit, label %tailrecurse.i

_ZN3ade15ExecutionEngine15LazyPassWrapper5resetEv.exit: ; preds = %tailrecurse.i, %1
  ret void
}